ARM GAS  C:\Users\Admin\AppData\Local\Temp\cclWVjmg.s 			page 1


   1              		.syntax unified
   2              		.cpu cortex-m0
   3              		.fpu softvfp
   4              		.eabi_attribute 20, 1
   5              		.eabi_attribute 21, 1
   6              		.eabi_attribute 23, 3
   7              		.eabi_attribute 24, 1
   8              		.eabi_attribute 25, 1
   9              		.eabi_attribute 26, 1
  10              		.eabi_attribute 30, 1
  11              		.eabi_attribute 34, 0
  12              		.eabi_attribute 18, 4
  13              		.thumb
  14              		.syntax unified
  15              		.file	"main.c"
  16              		.text
  17              	.Ltext0:
  18              		.cfi_sections	.debug_frame
  19              		.section	.text.timer_isr_interrupt,"ax",%progbits
  20              		.align	2
  21              		.global	timer_isr_interrupt
  22              		.code	16
  23              		.thumb_func
  24              		.type	timer_isr_interrupt, %function
  25              	timer_isr_interrupt:
  26              	.LFB34:
  27              		.file 1 "main.c"
   1:main.c        **** /* ========================================
   2:main.c        ****  *
   3:main.c        ****  * Copyright YOUR COMPANY, THE YEAR
   4:main.c        ****  * All Rights Reserved
   5:main.c        ****  * UNPUBLISHED, LICENSED SOFTWARE.
   6:main.c        ****  *
   7:main.c        ****  * CONFIDENTIAL AND PROPRIETARY INFORMATION
   8:main.c        ****  * WHICH IS THE PROPERTY OF your company.
   9:main.c        ****  *
  10:main.c        ****  * ========================================
  11:main.c        **** */
  12:main.c        **** #include "project.h"
  13:main.c        **** 
  14:main.c        **** #define RED 0b001
  15:main.c        **** #define YELLOW 0b010
  16:main.c        **** #define GREEN 0b100
  17:main.c        **** #define NO_COLOR 0b000
  18:main.c        **** 
  19:main.c        **** #define INITIAL_DELAY 3000
  20:main.c        **** 
  21:main.c        **** #define LIGHTS_BAR "RED YELLOW GREEN"
  22:main.c        **** #define SET_RED    "SET RED TIME:   "
  23:main.c        **** #define SET_YELLOW "SET YELLOW TIME:"
  24:main.c        **** #define SET_GREEN  "SET GREEN TIME: "
  25:main.c        **** #define EMPTY_LINE "                "
  26:main.c        **** #define TIME       "TIME=           "
  27:main.c        **** 
  28:main.c        **** #define POSITION_RED 0
  29:main.c        **** #define POSITION_YELLOW 4
  30:main.c        **** #define POSITION_GREEN 11
ARM GAS  C:\Users\Admin\AppData\Local\Temp\cclWVjmg.s 			page 2


  31:main.c        **** #define POSITITON_SET_TIME 5
  32:main.c        **** 
  33:main.c        **** uint8_t counter = 0;
  34:main.c        **** CYBIT algorithm = 0;
  35:main.c        **** 
  36:main.c        **** uint8_t redTime;
  37:main.c        **** uint8_t yellowTime;
  38:main.c        **** uint8_t greenTime;
  39:main.c        **** 
  40:main.c        **** uint8_t displayMode = 0;
  41:main.c        **** CYBIT modeHasChanged = 0;
  42:main.c        **** 
  43:main.c        **** struct DisplayCounter
  44:main.c        **** {
  45:main.c        ****     uint8_t position, counter;
  46:main.c        **** };
  47:main.c        **** struct DisplayCounter displayCounter = {0, 0};
  48:main.c        **** 
  49:main.c        **** inline void runAlgorithm1();
  50:main.c        **** inline void runAlgorithm2();
  51:main.c        **** inline void runAlgorithmGreenPart(const uint8_t* pShift);
  52:main.c        **** inline void runAlgorithmRedPart(const uint8_t* pShift);
  53:main.c        **** 
  54:main.c        **** CY_ISR(timer_isr_interrupt)
  55:main.c        **** {
  28              		.loc 1 55 0
  29              		.cfi_startproc
  30              		@ args = 0, pretend = 0, frame = 0
  31              		@ frame_needed = 0, uses_anonymous_args = 0
  32 0000 F8B5     		push	{r3, r4, r5, r6, r7, lr}
  33              		.cfi_def_cfa_offset 24
  34              		.cfi_offset 3, -24
  35              		.cfi_offset 4, -20
  36              		.cfi_offset 5, -16
  37              		.cfi_offset 6, -12
  38              		.cfi_offset 7, -8
  39              		.cfi_offset 14, -4
  56:main.c        ****     if (counter >= (greenTime + redTime + 2 * yellowTime)) 
  40              		.loc 1 56 0
  41 0002 BE4B     		ldr	r3, .L23
  42 0004 1E78     		ldrb	r6, [r3]
  43 0006 BE4B     		ldr	r3, .L23+4
  44 0008 1B78     		ldrb	r3, [r3]
  45 000a 1D00     		movs	r5, r3
  46 000c BD4A     		ldr	r2, .L23+8
  47 000e 1278     		ldrb	r2, [r2]
  48 0010 1400     		movs	r4, r2
  49 0012 9F18     		adds	r7, r3, r2
  50 0014 BC49     		ldr	r1, .L23+12
  51 0016 0978     		ldrb	r1, [r1]
  52 0018 4800     		lsls	r0, r1, #1
  53 001a 3818     		adds	r0, r7, r0
  54 001c 8642     		cmp	r6, r0
  55 001e 02DB     		blt	.L2
  57:main.c        ****     {
  58:main.c        ****         counter = 0;
  56              		.loc 1 58 0
ARM GAS  C:\Users\Admin\AppData\Local\Temp\cclWVjmg.s 			page 3


  57 0020 0026     		movs	r6, #0
  58 0022 B648     		ldr	r0, .L23
  59 0024 0670     		strb	r6, [r0]
  60              	.L2:
  59:main.c        ****     } 
  60:main.c        ****     
  61:main.c        ****     if (algorithm)
  61              		.loc 1 61 0
  62 0026 B548     		ldr	r0, .L23
  63 0028 4078     		ldrb	r0, [r0, #1]
  64 002a 0028     		cmp	r0, #0
  65 002c 00D1     		bne	.LCB35
  66 002e A9E0     		b	.L3	@long jump
  67              	.LCB35:
  68              	.LBB22:
  69              	.LBB23:
  62:main.c        ****     {
  63:main.c        ****         runAlgorithm2();
  64:main.c        ****     }
  65:main.c        ****     else
  66:main.c        ****     {
  67:main.c        ****         runAlgorithm1();
  68:main.c        ****     }
  69:main.c        ****     
  70:main.c        ****     counter++;
  71:main.c        ****     Timer_Counter_ClearInterrupt(Timer_Counter_INTR_MASK_TC);
  72:main.c        **** }
  73:main.c        **** 
  74:main.c        **** CY_ISR(button_isr_interrupt)
  75:main.c        **** {
  76:main.c        ****     algorithm = algorithm ? 0 : 1;
  77:main.c        ****     counter = 0;
  78:main.c        ****     
  79:main.c        ****     Button_ClearInterrupt();
  80:main.c        **** }
  81:main.c        **** 
  82:main.c        **** CY_ISR(button_encoder_isr_interrupt)
  83:main.c        **** {
  84:main.c        ****     if (displayMode >= 3)
  85:main.c        ****     {
  86:main.c        ****         displayMode = 0;
  87:main.c        ****     }
  88:main.c        ****     else
  89:main.c        ****     {
  90:main.c        ****         displayMode++;
  91:main.c        ****     }
  92:main.c        ****     modeHasChanged = 1;
  93:main.c        ****     
  94:main.c        ****     Button_Encoder_ClearInterrupt();
  95:main.c        **** }
  96:main.c        **** 
  97:main.c        **** int main(void)
  98:main.c        **** {
  99:main.c        ****     CyGlobalIntEnable; /* Enable global interrupts. */
 100:main.c        ****     
 101:main.c        ****     redTime = 8;
 102:main.c        ****     yellowTime = 2;
ARM GAS  C:\Users\Admin\AppData\Local\Temp\cclWVjmg.s 			page 4


 103:main.c        ****     greenTime = 8;
 104:main.c        ****     
 105:main.c        ****     displayCounter.counter = redTime;
 106:main.c        ****     displayCounter.position = POSITION_RED;
 107:main.c        ****     
 108:main.c        ****     Timer_Counter_Start();
 109:main.c        ****     timer_isr_StartEx(timer_isr_interrupt);
 110:main.c        ****     button_isr_StartEx(button_isr_interrupt);
 111:main.c        ****     button_encoder_isr_StartEx(button_encoder_isr_interrupt);
 112:main.c        ****     
 113:main.c        ****     QuadDec_Start();
 114:main.c        ****     
 115:main.c        ****     LCD_Char_Start();
 116:main.c        ****     LCD_Char_ClearDisplay();
 117:main.c        ****     
 118:main.c        ****     LCD_Char_Position(0, 5);
 119:main.c        ****     LCD_Char_PrintString("Author");
 120:main.c        ****     LCD_Char_Position(1, 2);
 121:main.c        ****     LCD_Char_PrintString("Denys Shutka");
 122:main.c        ****     CyDelay(INITIAL_DELAY);
 123:main.c        ****     LCD_Char_ClearDisplay();
 124:main.c        ****     
 125:main.c        ****     LCD_Char_Position(0, 0);
 126:main.c        ****     LCD_Char_PrintString(LIGHTS_BAR);
 127:main.c        ****     
 128:main.c        ****     uint8_t currentCounter = displayCounter.counter;
 129:main.c        ****     uint8_t currentPosition = displayCounter.position;
 130:main.c        ****     
 131:main.c        ****     for(;;)
 132:main.c        ****     {
 133:main.c        ****         /* LED algorithm is executed in timer_isr_interrupt */
 134:main.c        ****         
 135:main.c        ****         /* DISPLAY MODES:
 136:main.c        ****          * 0 is "INIT": display remaining time of lighting 
 137:main.c        ****          * 1 is "SET RED": set time for red diode
 138:main.c        ****          * 2 is "SET YELLOW": set time for yellow diode
 139:main.c        ****          * 3 is "SET GREEN": set time for green diode
 140:main.c        ****          */
 141:main.c        ****         
 142:main.c        ****         if (QuadDec_GetCounter() > 20)
 143:main.c        ****         {
 144:main.c        ****             QuadDec_SetCounter(20);
 145:main.c        ****         }
 146:main.c        ****         if (QuadDec_GetCounter() < 1)
 147:main.c        ****         {
 148:main.c        ****             QuadDec_SetCounter(1);
 149:main.c        ****         }
 150:main.c        ****         
 151:main.c        ****         if (modeHasChanged)
 152:main.c        ****         {
 153:main.c        ****             LCD_Char_ClearDisplay();
 154:main.c        ****             if (displayMode == 0)
 155:main.c        ****             {
 156:main.c        ****                 LCD_Char_Position(0, 0);
 157:main.c        ****                 LCD_Char_PrintString(LIGHTS_BAR);
 158:main.c        ****             }
 159:main.c        ****             else if (displayMode == 1)
ARM GAS  C:\Users\Admin\AppData\Local\Temp\cclWVjmg.s 			page 5


 160:main.c        ****             {
 161:main.c        ****                 LCD_Char_Position(0, 0);
 162:main.c        ****                 LCD_Char_PrintString(SET_RED);
 163:main.c        ****                 LCD_Char_Position(1, 0);
 164:main.c        ****                 LCD_Char_PrintString(TIME);
 165:main.c        ****                 QuadDec_SetCounter(redTime);
 166:main.c        ****             }
 167:main.c        ****             else if (displayMode == 2)
 168:main.c        ****             {
 169:main.c        ****                 LCD_Char_Position(0, 0);
 170:main.c        ****                 LCD_Char_PrintString(SET_YELLOW);
 171:main.c        ****                 LCD_Char_Position(1, 0);
 172:main.c        ****                 LCD_Char_PrintString(TIME);
 173:main.c        ****                 QuadDec_SetCounter(yellowTime);
 174:main.c        ****             }
 175:main.c        ****             else if (displayMode == 3)
 176:main.c        ****             {
 177:main.c        ****                 LCD_Char_Position(0, 0);
 178:main.c        ****                 LCD_Char_PrintString(SET_GREEN);
 179:main.c        ****                 LCD_Char_Position(1, 0);
 180:main.c        ****                 LCD_Char_PrintString(TIME);
 181:main.c        ****                 QuadDec_SetCounter(greenTime);
 182:main.c        ****             }
 183:main.c        ****             
 184:main.c        ****             modeHasChanged = 0;
 185:main.c        ****         }
 186:main.c        ****         
 187:main.c        ****         if (displayMode == 0)
 188:main.c        ****         {
 189:main.c        ****             if (currentPosition != displayCounter.position)
 190:main.c        ****             {
 191:main.c        ****                 LCD_Char_Position(1, 0);
 192:main.c        ****                 LCD_Char_PrintString(EMPTY_LINE);
 193:main.c        ****                 currentCounter = displayCounter.counter;
 194:main.c        ****                 currentPosition = displayCounter.position;
 195:main.c        ****             }
 196:main.c        ****             currentCounter = displayCounter.counter;
 197:main.c        ****             
 198:main.c        ****             LCD_Char_Position(1, currentPosition);
 199:main.c        ****             if (currentCounter < 10)
 200:main.c        ****             {
 201:main.c        ****                 LCD_Char_PutChar('0');
 202:main.c        ****                 LCD_Char_Position(1, currentPosition + 1);
 203:main.c        ****             }
 204:main.c        ****             LCD_Char_PrintDecUint16(currentCounter);
 205:main.c        ****         }
 206:main.c        ****         else if (displayMode == 1)
 207:main.c        ****         {
 208:main.c        ****             LCD_Char_Position(1, POSITITON_SET_TIME);
 209:main.c        ****             if (QuadDec_GetCounter() < 10)
 210:main.c        ****             {
 211:main.c        ****                 LCD_Char_PutChar('0');
 212:main.c        ****                 LCD_Char_Position(1, POSITITON_SET_TIME + 1);
 213:main.c        ****             }
 214:main.c        ****             LCD_Char_PrintDecUint16(QuadDec_GetCounter());
 215:main.c        ****             
 216:main.c        ****             redTime = QuadDec_GetCounter();
ARM GAS  C:\Users\Admin\AppData\Local\Temp\cclWVjmg.s 			page 6


 217:main.c        ****         }
 218:main.c        ****         else if (displayMode == 2)
 219:main.c        ****         {
 220:main.c        ****             LCD_Char_Position(1, POSITITON_SET_TIME);
 221:main.c        ****             if (QuadDec_GetCounter() < 10)
 222:main.c        ****             {
 223:main.c        ****                 LCD_Char_PutChar('0');
 224:main.c        ****                 LCD_Char_Position(1, POSITITON_SET_TIME + 1);
 225:main.c        ****             }
 226:main.c        ****             LCD_Char_PrintDecUint16(QuadDec_GetCounter());
 227:main.c        ****             
 228:main.c        ****             yellowTime = QuadDec_GetCounter();
 229:main.c        ****         }
 230:main.c        ****         else if (displayMode == 3)
 231:main.c        ****         {
 232:main.c        ****             LCD_Char_Position(1, POSITITON_SET_TIME);
 233:main.c        ****             if (QuadDec_GetCounter() < 10)
 234:main.c        ****             {
 235:main.c        ****                 LCD_Char_PutChar('0');
 236:main.c        ****                 LCD_Char_Position(1, POSITITON_SET_TIME + 1);
 237:main.c        ****             }
 238:main.c        ****             LCD_Char_PrintDecUint16(QuadDec_GetCounter());
 239:main.c        ****             
 240:main.c        ****             greenTime = QuadDec_GetCounter();
 241:main.c        ****         }
 242:main.c        ****     }
 243:main.c        **** }
 244:main.c        **** 
 245:main.c        **** inline void runAlgorithmGreenPart(const uint8_t* pShift)
 246:main.c        **** {
 247:main.c        ****     if (greenTime > 4)
 248:main.c        ****     {
 249:main.c        ****         if (counter < *pShift + (greenTime - 4))
 250:main.c        ****         {
 251:main.c        ****             Control_Reg_Write(GREEN);
 252:main.c        ****             displayCounter.position = POSITION_GREEN;
 253:main.c        ****             displayCounter.counter = greenTime - (counter - *pShift);
 254:main.c        ****         }
 255:main.c        ****         else if (counter < *pShift + (greenTime - 3))
 256:main.c        ****         {
 257:main.c        ****             Control_Reg_Write(NO_COLOR);
 258:main.c        ****             displayCounter.position = POSITION_GREEN;
 259:main.c        ****             displayCounter.counter = greenTime - (counter - *pShift);
 260:main.c        ****         }
 261:main.c        ****         else if (counter < *pShift + (greenTime - 2))
 262:main.c        ****         {
 263:main.c        ****             Control_Reg_Write(GREEN);
 264:main.c        ****             displayCounter.position = POSITION_GREEN;
 265:main.c        ****             displayCounter.counter = greenTime - (counter - *pShift);
 266:main.c        ****         }
 267:main.c        ****         else if (counter < *pShift + (greenTime - 1))
 268:main.c        ****         {
 269:main.c        ****             Control_Reg_Write(NO_COLOR);
 270:main.c        ****             displayCounter.position = POSITION_GREEN;
 271:main.c        ****             displayCounter.counter = greenTime - (counter - *pShift);
 272:main.c        ****         }
 273:main.c        ****         else if (counter < *pShift + greenTime)
ARM GAS  C:\Users\Admin\AppData\Local\Temp\cclWVjmg.s 			page 7


 274:main.c        ****         {
 275:main.c        ****             Control_Reg_Write(GREEN);
 276:main.c        ****             displayCounter.position = POSITION_GREEN;
 277:main.c        ****             displayCounter.counter = greenTime - (counter - *pShift);
 278:main.c        ****         }
 279:main.c        ****         else if (counter < *pShift + greenTime + yellowTime)
 280:main.c        ****         {
 281:main.c        ****             Control_Reg_Write(YELLOW);
 282:main.c        ****             displayCounter.position = POSITION_YELLOW;
 283:main.c        ****             displayCounter.counter = yellowTime - (counter - *pShift - greenTime);
 284:main.c        ****         }
 285:main.c        ****     }
 286:main.c        ****     else
 287:main.c        ****     {
 288:main.c        ****         if (counter < *pShift + greenTime)
 289:main.c        ****         {
 290:main.c        ****             Control_Reg_Write(GREEN);
 291:main.c        ****             displayCounter.position = POSITION_GREEN;
 292:main.c        ****             displayCounter.counter = greenTime - (counter - *pShift);
 293:main.c        ****         }
 294:main.c        ****         else if (counter < *pShift + (greenTime + yellowTime))
 295:main.c        ****         {
 296:main.c        ****             Control_Reg_Write(YELLOW);
 297:main.c        ****             displayCounter.position = POSITION_YELLOW;
 298:main.c        ****             displayCounter.counter = yellowTime - (counter - *pShift - greenTime);
 299:main.c        ****         }
 300:main.c        ****     }
 301:main.c        ****     
 302:main.c        **** }
 303:main.c        **** 
 304:main.c        **** inline void runAlgorithmRedPart(const uint8_t* pShift)
 305:main.c        **** {
 306:main.c        ****     if (counter < *pShift + redTime)
 307:main.c        ****     {
 308:main.c        ****         Control_Reg_Write(RED);
 309:main.c        ****         displayCounter.position = POSITION_RED;
 310:main.c        ****         displayCounter.counter = redTime - (counter - *pShift);
 311:main.c        ****     }
 312:main.c        ****     else if (counter < *pShift + (redTime + yellowTime))
 313:main.c        ****     {
 314:main.c        ****         Control_Reg_Write(YELLOW);
 315:main.c        ****         displayCounter.position = POSITION_YELLOW;
 316:main.c        ****         displayCounter.counter = yellowTime - (counter - *pShift - redTime);
 317:main.c        ****     }
 318:main.c        **** }
 319:main.c        **** 
 320:main.c        **** inline void runAlgorithm1()
 321:main.c        **** {
 322:main.c        ****     uint8 shift;
 323:main.c        ****     if (counter < redTime + yellowTime)
 324:main.c        ****     {
 325:main.c        ****         shift = 0;
 326:main.c        ****         runAlgorithmRedPart(&shift);
 327:main.c        ****     }
 328:main.c        ****     else 
 329:main.c        ****     {
 330:main.c        ****         shift = redTime + yellowTime;
ARM GAS  C:\Users\Admin\AppData\Local\Temp\cclWVjmg.s 			page 8


 331:main.c        ****         runAlgorithmGreenPart(&shift);
 332:main.c        ****     }
 333:main.c        **** }
 334:main.c        **** 
 335:main.c        **** inline void runAlgorithm2()
 336:main.c        **** {
 337:main.c        ****     uint8 shift;
 338:main.c        ****     if (counter < greenTime + yellowTime)
  70              		.loc 1 338 0
  71 0030 B248     		ldr	r0, .L23
  72 0032 0078     		ldrb	r0, [r0]
  73 0034 5C18     		adds	r4, r3, r1
  74 0036 A042     		cmp	r0, r4
  75 0038 7DDA     		bge	.L4
  76              	.LVL0:
  77              	.LBB24:
  78              	.LBB25:
 247:main.c        ****     {
  79              		.loc 1 247 0
  80 003a 042B     		cmp	r3, #4
  81 003c 5BD9     		bls	.L5
 249:main.c        ****         {
  82              		.loc 1 249 0
  83 003e 1A1F     		subs	r2, r3, #4
  84 0040 9042     		cmp	r0, r2
  85 0042 0BDA     		bge	.L6
 251:main.c        ****             displayCounter.position = POSITION_GREEN;
  86              		.loc 1 251 0
  87 0044 0420     		movs	r0, #4
  88 0046 FFF7FEFF 		bl	Control_Reg_Write
  89              	.LVL1:
 252:main.c        ****             displayCounter.counter = greenTime - (counter - *pShift);
  90              		.loc 1 252 0
  91 004a AC4B     		ldr	r3, .L23
  92 004c 0B22     		movs	r2, #11
  93 004e 1A71     		strb	r2, [r3, #4]
 253:main.c        ****         }
  94              		.loc 1 253 0
  95 0050 AB4A     		ldr	r2, .L23+4
  96 0052 1278     		ldrb	r2, [r2]
  97 0054 1978     		ldrb	r1, [r3]
  98 0056 521A     		subs	r2, r2, r1
  99 0058 5A71     		strb	r2, [r3, #5]
 100 005a 46E1     		b	.L7
 101              	.L6:
 255:main.c        ****         {
 102              		.loc 1 255 0
 103 005c DA1E     		subs	r2, r3, #3
 104 005e 9042     		cmp	r0, r2
 105 0060 0BDA     		bge	.L8
 257:main.c        ****             displayCounter.position = POSITION_GREEN;
 106              		.loc 1 257 0
 107 0062 0020     		movs	r0, #0
 108 0064 FFF7FEFF 		bl	Control_Reg_Write
 109              	.LVL2:
 258:main.c        ****             displayCounter.counter = greenTime - (counter - *pShift);
 110              		.loc 1 258 0
ARM GAS  C:\Users\Admin\AppData\Local\Temp\cclWVjmg.s 			page 9


 111 0068 A44B     		ldr	r3, .L23
 112 006a 0B22     		movs	r2, #11
 113 006c 1A71     		strb	r2, [r3, #4]
 259:main.c        ****         }
 114              		.loc 1 259 0
 115 006e A44A     		ldr	r2, .L23+4
 116 0070 1278     		ldrb	r2, [r2]
 117 0072 1978     		ldrb	r1, [r3]
 118 0074 521A     		subs	r2, r2, r1
 119 0076 5A71     		strb	r2, [r3, #5]
 120 0078 37E1     		b	.L7
 121              	.L8:
 261:main.c        ****         {
 122              		.loc 1 261 0
 123 007a 9A1E     		subs	r2, r3, #2
 124 007c 9042     		cmp	r0, r2
 125 007e 0BDA     		bge	.L9
 263:main.c        ****             displayCounter.position = POSITION_GREEN;
 126              		.loc 1 263 0
 127 0080 0420     		movs	r0, #4
 128 0082 FFF7FEFF 		bl	Control_Reg_Write
 129              	.LVL3:
 264:main.c        ****             displayCounter.counter = greenTime - (counter - *pShift);
 130              		.loc 1 264 0
 131 0086 9D4B     		ldr	r3, .L23
 132 0088 0B22     		movs	r2, #11
 133 008a 1A71     		strb	r2, [r3, #4]
 265:main.c        ****         }
 134              		.loc 1 265 0
 135 008c 9C4A     		ldr	r2, .L23+4
 136 008e 1278     		ldrb	r2, [r2]
 137 0090 1978     		ldrb	r1, [r3]
 138 0092 521A     		subs	r2, r2, r1
 139 0094 5A71     		strb	r2, [r3, #5]
 140 0096 28E1     		b	.L7
 141              	.L9:
 267:main.c        ****         {
 142              		.loc 1 267 0
 143 0098 013B     		subs	r3, r3, #1
 144 009a 9842     		cmp	r0, r3
 145 009c 0BDA     		bge	.L10
 269:main.c        ****             displayCounter.position = POSITION_GREEN;
 146              		.loc 1 269 0
 147 009e 0020     		movs	r0, #0
 148 00a0 FFF7FEFF 		bl	Control_Reg_Write
 149              	.LVL4:
 270:main.c        ****             displayCounter.counter = greenTime - (counter - *pShift);
 150              		.loc 1 270 0
 151 00a4 954B     		ldr	r3, .L23
 152 00a6 0B22     		movs	r2, #11
 153 00a8 1A71     		strb	r2, [r3, #4]
 271:main.c        ****         }
 154              		.loc 1 271 0
 155 00aa 954A     		ldr	r2, .L23+4
 156 00ac 1278     		ldrb	r2, [r2]
 157 00ae 1978     		ldrb	r1, [r3]
 158 00b0 521A     		subs	r2, r2, r1
ARM GAS  C:\Users\Admin\AppData\Local\Temp\cclWVjmg.s 			page 10


 159 00b2 5A71     		strb	r2, [r3, #5]
 160 00b4 19E1     		b	.L7
 161              	.L10:
 273:main.c        ****         {
 162              		.loc 1 273 0
 163 00b6 8542     		cmp	r5, r0
 164 00b8 0BDD     		ble	.L11
 275:main.c        ****             displayCounter.position = POSITION_GREEN;
 165              		.loc 1 275 0
 166 00ba 0420     		movs	r0, #4
 167 00bc FFF7FEFF 		bl	Control_Reg_Write
 168              	.LVL5:
 276:main.c        ****             displayCounter.counter = greenTime - (counter - *pShift);
 169              		.loc 1 276 0
 170 00c0 8E4B     		ldr	r3, .L23
 171 00c2 0B22     		movs	r2, #11
 172 00c4 1A71     		strb	r2, [r3, #4]
 277:main.c        ****         }
 173              		.loc 1 277 0
 174 00c6 8E4A     		ldr	r2, .L23+4
 175 00c8 1278     		ldrb	r2, [r2]
 176 00ca 1978     		ldrb	r1, [r3]
 177 00cc 521A     		subs	r2, r2, r1
 178 00ce 5A71     		strb	r2, [r3, #5]
 179 00d0 0BE1     		b	.L7
 180              	.L11:
 279:main.c        ****         {
 181              		.loc 1 279 0
 182 00d2 A042     		cmp	r0, r4
 183 00d4 00DB     		blt	.LCB139
 184 00d6 08E1     		b	.L7	@long jump
 185              	.LCB139:
 281:main.c        ****             displayCounter.position = POSITION_YELLOW;
 186              		.loc 1 281 0
 187 00d8 0220     		movs	r0, #2
 188 00da FFF7FEFF 		bl	Control_Reg_Write
 189              	.LVL6:
 282:main.c        ****             displayCounter.counter = yellowTime - (counter - *pShift - greenTime);
 190              		.loc 1 282 0
 191 00de 874B     		ldr	r3, .L23
 192 00e0 0422     		movs	r2, #4
 193 00e2 1A71     		strb	r2, [r3, #4]
 283:main.c        ****         }
 194              		.loc 1 283 0
 195 00e4 864A     		ldr	r2, .L23+4
 196 00e6 1278     		ldrb	r2, [r2]
 197 00e8 1978     		ldrb	r1, [r3]
 198 00ea 511A     		subs	r1, r2, r1
 199 00ec 864A     		ldr	r2, .L23+12
 200 00ee 1278     		ldrb	r2, [r2]
 201 00f0 8A18     		adds	r2, r1, r2
 202 00f2 5A71     		strb	r2, [r3, #5]
 203 00f4 F9E0     		b	.L7
 204              	.L5:
 288:main.c        ****         {
 205              		.loc 1 288 0
 206 00f6 8542     		cmp	r5, r0
ARM GAS  C:\Users\Admin\AppData\Local\Temp\cclWVjmg.s 			page 11


 207 00f8 0BDD     		ble	.L12
 290:main.c        ****             displayCounter.position = POSITION_GREEN;
 208              		.loc 1 290 0
 209 00fa 0420     		movs	r0, #4
 210 00fc FFF7FEFF 		bl	Control_Reg_Write
 211              	.LVL7:
 291:main.c        ****             displayCounter.counter = greenTime - (counter - *pShift);
 212              		.loc 1 291 0
 213 0100 7E4B     		ldr	r3, .L23
 214 0102 0B22     		movs	r2, #11
 215 0104 1A71     		strb	r2, [r3, #4]
 292:main.c        ****         }
 216              		.loc 1 292 0
 217 0106 7E4A     		ldr	r2, .L23+4
 218 0108 1278     		ldrb	r2, [r2]
 219 010a 1978     		ldrb	r1, [r3]
 220 010c 521A     		subs	r2, r2, r1
 221 010e 5A71     		strb	r2, [r3, #5]
 222 0110 EBE0     		b	.L7
 223              	.L12:
 294:main.c        ****         {
 224              		.loc 1 294 0
 225 0112 A042     		cmp	r0, r4
 226 0114 00DB     		blt	.LCB176
 227 0116 E8E0     		b	.L7	@long jump
 228              	.LCB176:
 296:main.c        ****             displayCounter.position = POSITION_YELLOW;
 229              		.loc 1 296 0
 230 0118 0220     		movs	r0, #2
 231 011a FFF7FEFF 		bl	Control_Reg_Write
 232              	.LVL8:
 297:main.c        ****             displayCounter.counter = yellowTime - (counter - *pShift - greenTime);
 233              		.loc 1 297 0
 234 011e 774B     		ldr	r3, .L23
 235 0120 0422     		movs	r2, #4
 236 0122 1A71     		strb	r2, [r3, #4]
 298:main.c        ****         }
 237              		.loc 1 298 0
 238 0124 764A     		ldr	r2, .L23+4
 239 0126 1278     		ldrb	r2, [r2]
 240 0128 1978     		ldrb	r1, [r3]
 241 012a 511A     		subs	r1, r2, r1
 242 012c 764A     		ldr	r2, .L23+12
 243 012e 1278     		ldrb	r2, [r2]
 244 0130 8A18     		adds	r2, r1, r2
 245 0132 5A71     		strb	r2, [r3, #5]
 246 0134 D9E0     		b	.L7
 247              	.LVL9:
 248              	.L4:
 249              	.LBE25:
 250              	.LBE24:
 339:main.c        ****     {
 340:main.c        ****         shift = 0;
 341:main.c        ****         runAlgorithmGreenPart(&shift);
 342:main.c        ****     }
 343:main.c        ****     else 
 344:main.c        ****     {
ARM GAS  C:\Users\Admin\AppData\Local\Temp\cclWVjmg.s 			page 12


 345:main.c        ****         shift = greenTime + yellowTime;
 251              		.loc 1 345 0
 252 0136 5B18     		adds	r3, r3, r1
 253 0138 DCB2     		uxtb	r4, r3
 254              	.LVL10:
 255              	.LBB26:
 256              	.LBB27:
 306:main.c        ****     {
 257              		.loc 1 306 0
 258 013a 1319     		adds	r3, r2, r4
 259 013c 9842     		cmp	r0, r3
 260 013e 0CDA     		bge	.L13
 308:main.c        ****         displayCounter.position = POSITION_RED;
 261              		.loc 1 308 0
 262 0140 0120     		movs	r0, #1
 263 0142 FFF7FEFF 		bl	Control_Reg_Write
 264              	.LVL11:
 309:main.c        ****         displayCounter.counter = redTime - (counter - *pShift);
 265              		.loc 1 309 0
 266 0146 6D4A     		ldr	r2, .L23
 267 0148 0023     		movs	r3, #0
 268 014a 1371     		strb	r3, [r2, #4]
 310:main.c        ****     }
 269              		.loc 1 310 0
 270 014c 1378     		ldrb	r3, [r2]
 271 014e E41A     		subs	r4, r4, r3
 272              	.LVL12:
 273 0150 6C4B     		ldr	r3, .L23+8
 274 0152 1978     		ldrb	r1, [r3]
 275 0154 6418     		adds	r4, r4, r1
 276 0156 5471     		strb	r4, [r2, #5]
 277 0158 C7E0     		b	.L7
 278              	.LVL13:
 279              	.L13:
 312:main.c        ****     {
 280              		.loc 1 312 0
 281 015a 5218     		adds	r2, r2, r1
 282 015c A218     		adds	r2, r4, r2
 283 015e 9042     		cmp	r0, r2
 284 0160 00DB     		blt	.LCB229
 285 0162 C2E0     		b	.L7	@long jump
 286              	.LCB229:
 314:main.c        ****         displayCounter.position = POSITION_YELLOW;
 287              		.loc 1 314 0
 288 0164 0220     		movs	r0, #2
 289 0166 FFF7FEFF 		bl	Control_Reg_Write
 290              	.LVL14:
 315:main.c        ****         displayCounter.counter = yellowTime - (counter - *pShift - redTime);
 291              		.loc 1 315 0
 292 016a 644A     		ldr	r2, .L23
 293 016c 0423     		movs	r3, #4
 294 016e 1371     		strb	r3, [r2, #4]
 316:main.c        ****     }
 295              		.loc 1 316 0
 296 0170 1378     		ldrb	r3, [r2]
 297 0172 E41A     		subs	r4, r4, r3
 298              	.LVL15:
ARM GAS  C:\Users\Admin\AppData\Local\Temp\cclWVjmg.s 			page 13


 299 0174 634B     		ldr	r3, .L23+8
 300 0176 1B78     		ldrb	r3, [r3]
 301 0178 E418     		adds	r4, r4, r3
 302 017a 634B     		ldr	r3, .L23+12
 303 017c 1978     		ldrb	r1, [r3]
 304 017e 6418     		adds	r4, r4, r1
 305 0180 5471     		strb	r4, [r2, #5]
 306 0182 B2E0     		b	.L7
 307              	.LVL16:
 308              	.L3:
 309              	.LBE27:
 310              	.LBE26:
 311              	.LBE23:
 312              	.LBE22:
 313              	.LBB28:
 314              	.LBB29:
 323:main.c        ****     {
 315              		.loc 1 323 0
 316 0184 5D48     		ldr	r0, .L23
 317 0186 0078     		ldrb	r0, [r0]
 318 0188 5518     		adds	r5, r2, r1
 319 018a A842     		cmp	r0, r5
 320 018c 1FDA     		bge	.L14
 321              	.LVL17:
 322              	.LBB30:
 323              	.LBB31:
 306:main.c        ****     {
 324              		.loc 1 306 0
 325 018e 8442     		cmp	r4, r0
 326 0190 0BDD     		ble	.L15
 308:main.c        ****         displayCounter.position = POSITION_RED;
 327              		.loc 1 308 0
 328 0192 0120     		movs	r0, #1
 329 0194 FFF7FEFF 		bl	Control_Reg_Write
 330              	.LVL18:
 309:main.c        ****         displayCounter.counter = redTime - (counter - *pShift);
 331              		.loc 1 309 0
 332 0198 584B     		ldr	r3, .L23
 333 019a 0022     		movs	r2, #0
 334 019c 1A71     		strb	r2, [r3, #4]
 310:main.c        ****     }
 335              		.loc 1 310 0
 336 019e 594A     		ldr	r2, .L23+8
 337 01a0 1278     		ldrb	r2, [r2]
 338 01a2 1978     		ldrb	r1, [r3]
 339 01a4 521A     		subs	r2, r2, r1
 340 01a6 5A71     		strb	r2, [r3, #5]
 341 01a8 9FE0     		b	.L7
 342              	.L15:
 312:main.c        ****     {
 343              		.loc 1 312 0
 344 01aa A842     		cmp	r0, r5
 345 01ac 00DB     		blt	.LCB285
 346 01ae 9CE0     		b	.L7	@long jump
 347              	.LCB285:
 314:main.c        ****         displayCounter.position = POSITION_YELLOW;
 348              		.loc 1 314 0
ARM GAS  C:\Users\Admin\AppData\Local\Temp\cclWVjmg.s 			page 14


 349 01b0 0220     		movs	r0, #2
 350 01b2 FFF7FEFF 		bl	Control_Reg_Write
 351              	.LVL19:
 315:main.c        ****         displayCounter.counter = yellowTime - (counter - *pShift - redTime);
 352              		.loc 1 315 0
 353 01b6 514B     		ldr	r3, .L23
 354 01b8 0422     		movs	r2, #4
 355 01ba 1A71     		strb	r2, [r3, #4]
 316:main.c        ****     }
 356              		.loc 1 316 0
 357 01bc 514A     		ldr	r2, .L23+8
 358 01be 1278     		ldrb	r2, [r2]
 359 01c0 1978     		ldrb	r1, [r3]
 360 01c2 511A     		subs	r1, r2, r1
 361 01c4 504A     		ldr	r2, .L23+12
 362 01c6 1278     		ldrb	r2, [r2]
 363 01c8 8A18     		adds	r2, r1, r2
 364 01ca 5A71     		strb	r2, [r3, #5]
 365 01cc 8DE0     		b	.L7
 366              	.LVL20:
 367              	.L14:
 368              	.LBE31:
 369              	.LBE30:
 330:main.c        ****         runAlgorithmGreenPart(&shift);
 370              		.loc 1 330 0
 371 01ce 5218     		adds	r2, r2, r1
 372 01d0 D4B2     		uxtb	r4, r2
 373              	.LVL21:
 374              	.LBB32:
 375              	.LBB33:
 247:main.c        ****     {
 376              		.loc 1 247 0
 377 01d2 042B     		cmp	r3, #4
 378 01d4 66D9     		bls	.L16
 249:main.c        ****         {
 379              		.loc 1 249 0
 380 01d6 1A1F     		subs	r2, r3, #4
 381 01d8 A218     		adds	r2, r4, r2
 382 01da 9042     		cmp	r0, r2
 383 01dc 0CDA     		bge	.L17
 251:main.c        ****             displayCounter.position = POSITION_GREEN;
 384              		.loc 1 251 0
 385 01de 0420     		movs	r0, #4
 386 01e0 FFF7FEFF 		bl	Control_Reg_Write
 387              	.LVL22:
 252:main.c        ****             displayCounter.counter = greenTime - (counter - *pShift);
 388              		.loc 1 252 0
 389 01e4 454B     		ldr	r3, .L23
 390 01e6 0B22     		movs	r2, #11
 391 01e8 1A71     		strb	r2, [r3, #4]
 253:main.c        ****         }
 392              		.loc 1 253 0
 393 01ea 1A78     		ldrb	r2, [r3]
 394 01ec A41A     		subs	r4, r4, r2
 395              	.LVL23:
 396 01ee 444A     		ldr	r2, .L23+4
 397 01f0 1178     		ldrb	r1, [r2]
ARM GAS  C:\Users\Admin\AppData\Local\Temp\cclWVjmg.s 			page 15


 398 01f2 6418     		adds	r4, r4, r1
 399 01f4 5C71     		strb	r4, [r3, #5]
 400 01f6 78E0     		b	.L7
 401              	.LVL24:
 402              	.L17:
 255:main.c        ****         {
 403              		.loc 1 255 0
 404 01f8 DA1E     		subs	r2, r3, #3
 405 01fa A218     		adds	r2, r4, r2
 406 01fc 9042     		cmp	r0, r2
 407 01fe 0CDA     		bge	.L18
 257:main.c        ****             displayCounter.position = POSITION_GREEN;
 408              		.loc 1 257 0
 409 0200 0020     		movs	r0, #0
 410 0202 FFF7FEFF 		bl	Control_Reg_Write
 411              	.LVL25:
 258:main.c        ****             displayCounter.counter = greenTime - (counter - *pShift);
 412              		.loc 1 258 0
 413 0206 3D4B     		ldr	r3, .L23
 414 0208 0B22     		movs	r2, #11
 415 020a 1A71     		strb	r2, [r3, #4]
 259:main.c        ****         }
 416              		.loc 1 259 0
 417 020c 1A78     		ldrb	r2, [r3]
 418 020e A41A     		subs	r4, r4, r2
 419              	.LVL26:
 420 0210 3B4A     		ldr	r2, .L23+4
 421 0212 1178     		ldrb	r1, [r2]
 422 0214 6418     		adds	r4, r4, r1
 423 0216 5C71     		strb	r4, [r3, #5]
 424 0218 67E0     		b	.L7
 425              	.LVL27:
 426              	.L18:
 261:main.c        ****         {
 427              		.loc 1 261 0
 428 021a 9A1E     		subs	r2, r3, #2
 429 021c A218     		adds	r2, r4, r2
 430 021e 9042     		cmp	r0, r2
 431 0220 0CDA     		bge	.L19
 263:main.c        ****             displayCounter.position = POSITION_GREEN;
 432              		.loc 1 263 0
 433 0222 0420     		movs	r0, #4
 434 0224 FFF7FEFF 		bl	Control_Reg_Write
 435              	.LVL28:
 264:main.c        ****             displayCounter.counter = greenTime - (counter - *pShift);
 436              		.loc 1 264 0
 437 0228 344B     		ldr	r3, .L23
 438 022a 0B22     		movs	r2, #11
 439 022c 1A71     		strb	r2, [r3, #4]
 265:main.c        ****         }
 440              		.loc 1 265 0
 441 022e 1A78     		ldrb	r2, [r3]
 442 0230 A41A     		subs	r4, r4, r2
 443              	.LVL29:
 444 0232 334A     		ldr	r2, .L23+4
 445 0234 1178     		ldrb	r1, [r2]
 446 0236 6418     		adds	r4, r4, r1
ARM GAS  C:\Users\Admin\AppData\Local\Temp\cclWVjmg.s 			page 16


 447 0238 5C71     		strb	r4, [r3, #5]
 448 023a 56E0     		b	.L7
 449              	.LVL30:
 450              	.L19:
 267:main.c        ****         {
 451              		.loc 1 267 0
 452 023c 5A1E     		subs	r2, r3, #1
 453 023e A218     		adds	r2, r4, r2
 454 0240 9042     		cmp	r0, r2
 455 0242 0CDA     		bge	.L20
 269:main.c        ****             displayCounter.position = POSITION_GREEN;
 456              		.loc 1 269 0
 457 0244 0020     		movs	r0, #0
 458 0246 FFF7FEFF 		bl	Control_Reg_Write
 459              	.LVL31:
 270:main.c        ****             displayCounter.counter = greenTime - (counter - *pShift);
 460              		.loc 1 270 0
 461 024a 2C4B     		ldr	r3, .L23
 462 024c 0B22     		movs	r2, #11
 463 024e 1A71     		strb	r2, [r3, #4]
 271:main.c        ****         }
 464              		.loc 1 271 0
 465 0250 1A78     		ldrb	r2, [r3]
 466 0252 A41A     		subs	r4, r4, r2
 467              	.LVL32:
 468 0254 2A4A     		ldr	r2, .L23+4
 469 0256 1178     		ldrb	r1, [r2]
 470 0258 6418     		adds	r4, r4, r1
 471 025a 5C71     		strb	r4, [r3, #5]
 472 025c 45E0     		b	.L7
 473              	.LVL33:
 474              	.L20:
 273:main.c        ****         {
 475              		.loc 1 273 0
 476 025e 1B19     		adds	r3, r3, r4
 477 0260 9842     		cmp	r0, r3
 478 0262 0CDA     		bge	.L21
 275:main.c        ****             displayCounter.position = POSITION_GREEN;
 479              		.loc 1 275 0
 480 0264 0420     		movs	r0, #4
 481 0266 FFF7FEFF 		bl	Control_Reg_Write
 482              	.LVL34:
 276:main.c        ****             displayCounter.counter = greenTime - (counter - *pShift);
 483              		.loc 1 276 0
 484 026a 244B     		ldr	r3, .L23
 485 026c 0B22     		movs	r2, #11
 486 026e 1A71     		strb	r2, [r3, #4]
 277:main.c        ****         }
 487              		.loc 1 277 0
 488 0270 1A78     		ldrb	r2, [r3]
 489 0272 A41A     		subs	r4, r4, r2
 490              	.LVL35:
 491 0274 224A     		ldr	r2, .L23+4
 492 0276 1178     		ldrb	r1, [r2]
 493 0278 6418     		adds	r4, r4, r1
 494 027a 5C71     		strb	r4, [r3, #5]
 495 027c 35E0     		b	.L7
ARM GAS  C:\Users\Admin\AppData\Local\Temp\cclWVjmg.s 			page 17


 496              	.LVL36:
 497              	.L21:
 279:main.c        ****         {
 498              		.loc 1 279 0
 499 027e CB18     		adds	r3, r1, r3
 500 0280 9842     		cmp	r0, r3
 501 0282 32DA     		bge	.L7
 281:main.c        ****             displayCounter.position = POSITION_YELLOW;
 502              		.loc 1 281 0
 503 0284 0220     		movs	r0, #2
 504 0286 FFF7FEFF 		bl	Control_Reg_Write
 505              	.LVL37:
 282:main.c        ****             displayCounter.counter = yellowTime - (counter - *pShift - greenTime);
 506              		.loc 1 282 0
 507 028a 1C4B     		ldr	r3, .L23
 508 028c 0422     		movs	r2, #4
 509 028e 1A71     		strb	r2, [r3, #4]
 283:main.c        ****         }
 510              		.loc 1 283 0
 511 0290 1A78     		ldrb	r2, [r3]
 512 0292 A41A     		subs	r4, r4, r2
 513              	.LVL38:
 514 0294 1A4A     		ldr	r2, .L23+4
 515 0296 1178     		ldrb	r1, [r2]
 516 0298 6418     		adds	r4, r4, r1
 517 029a 1B4A     		ldr	r2, .L23+12
 518 029c 1178     		ldrb	r1, [r2]
 519 029e 6418     		adds	r4, r4, r1
 520 02a0 5C71     		strb	r4, [r3, #5]
 521 02a2 22E0     		b	.L7
 522              	.LVL39:
 523              	.L16:
 288:main.c        ****         {
 524              		.loc 1 288 0
 525 02a4 1A19     		adds	r2, r3, r4
 526 02a6 9042     		cmp	r0, r2
 527 02a8 0CDA     		bge	.L22
 290:main.c        ****             displayCounter.position = POSITION_GREEN;
 528              		.loc 1 290 0
 529 02aa 0420     		movs	r0, #4
 530 02ac FFF7FEFF 		bl	Control_Reg_Write
 531              	.LVL40:
 291:main.c        ****             displayCounter.counter = greenTime - (counter - *pShift);
 532              		.loc 1 291 0
 533 02b0 124B     		ldr	r3, .L23
 534 02b2 0B22     		movs	r2, #11
 535 02b4 1A71     		strb	r2, [r3, #4]
 292:main.c        ****         }
 536              		.loc 1 292 0
 537 02b6 1A78     		ldrb	r2, [r3]
 538 02b8 A41A     		subs	r4, r4, r2
 539              	.LVL41:
 540 02ba 114A     		ldr	r2, .L23+4
 541 02bc 1178     		ldrb	r1, [r2]
 542 02be 6418     		adds	r4, r4, r1
 543 02c0 5C71     		strb	r4, [r3, #5]
 544 02c2 12E0     		b	.L7
ARM GAS  C:\Users\Admin\AppData\Local\Temp\cclWVjmg.s 			page 18


 545              	.LVL42:
 546              	.L22:
 294:main.c        ****         {
 547              		.loc 1 294 0
 548 02c4 5B18     		adds	r3, r3, r1
 549 02c6 E318     		adds	r3, r4, r3
 550 02c8 9842     		cmp	r0, r3
 551 02ca 0EDA     		bge	.L7
 296:main.c        ****             displayCounter.position = POSITION_YELLOW;
 552              		.loc 1 296 0
 553 02cc 0220     		movs	r0, #2
 554 02ce FFF7FEFF 		bl	Control_Reg_Write
 555              	.LVL43:
 297:main.c        ****             displayCounter.counter = yellowTime - (counter - *pShift - greenTime);
 556              		.loc 1 297 0
 557 02d2 0A4B     		ldr	r3, .L23
 558 02d4 0422     		movs	r2, #4
 559 02d6 1A71     		strb	r2, [r3, #4]
 298:main.c        ****         }
 560              		.loc 1 298 0
 561 02d8 1A78     		ldrb	r2, [r3]
 562 02da A41A     		subs	r4, r4, r2
 563              	.LVL44:
 564 02dc 084A     		ldr	r2, .L23+4
 565 02de 1278     		ldrb	r2, [r2]
 566 02e0 A418     		adds	r4, r4, r2
 567 02e2 094A     		ldr	r2, .L23+12
 568 02e4 1178     		ldrb	r1, [r2]
 569 02e6 6418     		adds	r4, r4, r1
 570 02e8 5C71     		strb	r4, [r3, #5]
 571              	.LVL45:
 572              	.L7:
 573              	.LBE33:
 574              	.LBE32:
 575              	.LBE29:
 576              	.LBE28:
  70:main.c        ****     Timer_Counter_ClearInterrupt(Timer_Counter_INTR_MASK_TC);
 577              		.loc 1 70 0
 578 02ea 044A     		ldr	r2, .L23
 579 02ec 1378     		ldrb	r3, [r2]
 580 02ee 0133     		adds	r3, r3, #1
 581 02f0 1370     		strb	r3, [r2]
  71:main.c        **** }
 582              		.loc 1 71 0
 583 02f2 0120     		movs	r0, #1
 584 02f4 FFF7FEFF 		bl	Timer_Counter_ClearInterrupt
 585              	.LVL46:
  72:main.c        **** 
 586              		.loc 1 72 0
 587              		@ sp needed
 588 02f8 F8BD     		pop	{r3, r4, r5, r6, r7, pc}
 589              	.L24:
 590 02fa C046     		.align	2
 591              	.L23:
 592 02fc 00000000 		.word	.LANCHOR0
 593 0300 00000000 		.word	greenTime
 594 0304 00000000 		.word	redTime
ARM GAS  C:\Users\Admin\AppData\Local\Temp\cclWVjmg.s 			page 19


 595 0308 00000000 		.word	yellowTime
 596              		.cfi_endproc
 597              	.LFE34:
 598              		.size	timer_isr_interrupt, .-timer_isr_interrupt
 599              		.section	.text.button_isr_interrupt,"ax",%progbits
 600              		.align	2
 601              		.global	button_isr_interrupt
 602              		.code	16
 603              		.thumb_func
 604              		.type	button_isr_interrupt, %function
 605              	button_isr_interrupt:
 606              	.LFB35:
  75:main.c        ****     algorithm = algorithm ? 0 : 1;
 607              		.loc 1 75 0
 608              		.cfi_startproc
 609              		@ args = 0, pretend = 0, frame = 0
 610              		@ frame_needed = 0, uses_anonymous_args = 0
 611 0000 10B5     		push	{r4, lr}
 612              		.cfi_def_cfa_offset 8
 613              		.cfi_offset 4, -8
 614              		.cfi_offset 14, -4
  76:main.c        ****     counter = 0;
 615              		.loc 1 76 0
 616 0002 054B     		ldr	r3, .L26
 617 0004 5A78     		ldrb	r2, [r3, #1]
 618 0006 5142     		rsbs	r1, r2, #0
 619 0008 4A41     		adcs	r2, r2, r1
 620 000a 5A70     		strb	r2, [r3, #1]
  77:main.c        ****     
 621              		.loc 1 77 0
 622 000c 0022     		movs	r2, #0
 623 000e 1A70     		strb	r2, [r3]
  79:main.c        **** }
 624              		.loc 1 79 0
 625 0010 FFF7FEFF 		bl	Button_ClearInterrupt
 626              	.LVL47:
  80:main.c        **** 
 627              		.loc 1 80 0
 628              		@ sp needed
 629 0014 10BD     		pop	{r4, pc}
 630              	.L27:
 631 0016 C046     		.align	2
 632              	.L26:
 633 0018 00000000 		.word	.LANCHOR0
 634              		.cfi_endproc
 635              	.LFE35:
 636              		.size	button_isr_interrupt, .-button_isr_interrupt
 637              		.section	.text.button_encoder_isr_interrupt,"ax",%progbits
 638              		.align	2
 639              		.global	button_encoder_isr_interrupt
 640              		.code	16
 641              		.thumb_func
 642              		.type	button_encoder_isr_interrupt, %function
 643              	button_encoder_isr_interrupt:
 644              	.LFB36:
  83:main.c        ****     if (displayMode >= 3)
 645              		.loc 1 83 0
ARM GAS  C:\Users\Admin\AppData\Local\Temp\cclWVjmg.s 			page 20


 646              		.cfi_startproc
 647              		@ args = 0, pretend = 0, frame = 0
 648              		@ frame_needed = 0, uses_anonymous_args = 0
 649 0000 10B5     		push	{r4, lr}
 650              		.cfi_def_cfa_offset 8
 651              		.cfi_offset 4, -8
 652              		.cfi_offset 14, -4
  84:main.c        ****     {
 653              		.loc 1 84 0
 654 0002 084B     		ldr	r3, .L31
 655 0004 9B79     		ldrb	r3, [r3, #6]
 656 0006 022B     		cmp	r3, #2
 657 0008 03D9     		bls	.L29
  86:main.c        ****     }
 658              		.loc 1 86 0
 659 000a 0022     		movs	r2, #0
 660 000c 054B     		ldr	r3, .L31
 661 000e 9A71     		strb	r2, [r3, #6]
 662 0010 02E0     		b	.L30
 663              	.L29:
  90:main.c        ****     }
 664              		.loc 1 90 0
 665 0012 0133     		adds	r3, r3, #1
 666 0014 034A     		ldr	r2, .L31
 667 0016 9371     		strb	r3, [r2, #6]
 668              	.L30:
  92:main.c        ****     
 669              		.loc 1 92 0
 670 0018 0122     		movs	r2, #1
 671 001a 024B     		ldr	r3, .L31
 672 001c DA71     		strb	r2, [r3, #7]
  94:main.c        **** }
 673              		.loc 1 94 0
 674 001e FFF7FEFF 		bl	Button_Encoder_ClearInterrupt
 675              	.LVL48:
  95:main.c        **** 
 676              		.loc 1 95 0
 677              		@ sp needed
 678 0022 10BD     		pop	{r4, pc}
 679              	.L32:
 680              		.align	2
 681              	.L31:
 682 0024 00000000 		.word	.LANCHOR0
 683              		.cfi_endproc
 684              	.LFE36:
 685              		.size	button_encoder_isr_interrupt, .-button_encoder_isr_interrupt
 686              		.section	.text.main,"ax",%progbits
 687              		.align	2
 688              		.global	main
 689              		.code	16
 690              		.thumb_func
 691              		.type	main, %function
 692              	main:
 693              	.LFB37:
  98:main.c        ****     CyGlobalIntEnable; /* Enable global interrupts. */
 694              		.loc 1 98 0
 695              		.cfi_startproc
ARM GAS  C:\Users\Admin\AppData\Local\Temp\cclWVjmg.s 			page 21


 696              		@ args = 0, pretend = 0, frame = 0
 697              		@ frame_needed = 0, uses_anonymous_args = 0
 698 0000 70B5     		push	{r4, r5, r6, lr}
 699              		.cfi_def_cfa_offset 16
 700              		.cfi_offset 4, -16
 701              		.cfi_offset 5, -12
 702              		.cfi_offset 6, -8
 703              		.cfi_offset 14, -4
  99:main.c        ****     
 704              		.loc 1 99 0
 705              		.syntax divided
 706              	@ 99 "main.c" 1
 707 0002 62B6     		CPSIE   i
 708              	@ 0 "" 2
 101:main.c        ****     yellowTime = 2;
 709              		.loc 1 101 0
 710              		.thumb
 711              		.syntax unified
 712 0004 0823     		movs	r3, #8
 713 0006 8A4A     		ldr	r2, .L51
 714 0008 1370     		strb	r3, [r2]
 102:main.c        ****     greenTime = 8;
 715              		.loc 1 102 0
 716 000a 0221     		movs	r1, #2
 717 000c 894A     		ldr	r2, .L51+4
 718 000e 1170     		strb	r1, [r2]
 103:main.c        ****     
 719              		.loc 1 103 0
 720 0010 894A     		ldr	r2, .L51+8
 721 0012 1370     		strb	r3, [r2]
 105:main.c        ****     displayCounter.position = POSITION_RED;
 722              		.loc 1 105 0
 723 0014 894C     		ldr	r4, .L51+12
 724 0016 6371     		strb	r3, [r4, #5]
 106:main.c        ****     
 725              		.loc 1 106 0
 726 0018 0023     		movs	r3, #0
 727 001a 2371     		strb	r3, [r4, #4]
 108:main.c        ****     timer_isr_StartEx(timer_isr_interrupt);
 728              		.loc 1 108 0
 729 001c FFF7FEFF 		bl	Timer_Counter_Start
 730              	.LVL49:
 109:main.c        ****     button_isr_StartEx(button_isr_interrupt);
 731              		.loc 1 109 0
 732 0020 8748     		ldr	r0, .L51+16
 733 0022 FFF7FEFF 		bl	timer_isr_StartEx
 734              	.LVL50:
 110:main.c        ****     button_encoder_isr_StartEx(button_encoder_isr_interrupt);
 735              		.loc 1 110 0
 736 0026 8748     		ldr	r0, .L51+20
 737 0028 FFF7FEFF 		bl	button_isr_StartEx
 738              	.LVL51:
 111:main.c        ****     
 739              		.loc 1 111 0
 740 002c 8648     		ldr	r0, .L51+24
 741 002e FFF7FEFF 		bl	button_encoder_isr_StartEx
 742              	.LVL52:
ARM GAS  C:\Users\Admin\AppData\Local\Temp\cclWVjmg.s 			page 22


 113:main.c        ****     
 743              		.loc 1 113 0
 744 0032 FFF7FEFF 		bl	QuadDec_Start
 745              	.LVL53:
 115:main.c        ****     LCD_Char_ClearDisplay();
 746              		.loc 1 115 0
 747 0036 FFF7FEFF 		bl	LCD_Char_Start
 748              	.LVL54:
 116:main.c        ****     
 749              		.loc 1 116 0
 750 003a 0120     		movs	r0, #1
 751 003c FFF7FEFF 		bl	LCD_Char_WriteControl
 752              	.LVL55:
 118:main.c        ****     LCD_Char_PrintString("Author");
 753              		.loc 1 118 0
 754 0040 0521     		movs	r1, #5
 755 0042 0020     		movs	r0, #0
 756 0044 FFF7FEFF 		bl	LCD_Char_Position
 757              	.LVL56:
 119:main.c        ****     LCD_Char_Position(1, 2);
 758              		.loc 1 119 0
 759 0048 8048     		ldr	r0, .L51+28
 760 004a FFF7FEFF 		bl	LCD_Char_PrintString
 761              	.LVL57:
 120:main.c        ****     LCD_Char_PrintString("Denys Shutka");
 762              		.loc 1 120 0
 763 004e 0221     		movs	r1, #2
 764 0050 0120     		movs	r0, #1
 765 0052 FFF7FEFF 		bl	LCD_Char_Position
 766              	.LVL58:
 121:main.c        ****     CyDelay(INITIAL_DELAY);
 767              		.loc 1 121 0
 768 0056 7E48     		ldr	r0, .L51+32
 769 0058 FFF7FEFF 		bl	LCD_Char_PrintString
 770              	.LVL59:
 122:main.c        ****     LCD_Char_ClearDisplay();
 771              		.loc 1 122 0
 772 005c 7D48     		ldr	r0, .L51+36
 773 005e FFF7FEFF 		bl	CyDelay
 774              	.LVL60:
 123:main.c        ****     
 775              		.loc 1 123 0
 776 0062 0120     		movs	r0, #1
 777 0064 FFF7FEFF 		bl	LCD_Char_WriteControl
 778              	.LVL61:
 125:main.c        ****     LCD_Char_PrintString(LIGHTS_BAR);
 779              		.loc 1 125 0
 780 0068 0021     		movs	r1, #0
 781 006a 0020     		movs	r0, #0
 782 006c FFF7FEFF 		bl	LCD_Char_Position
 783              	.LVL62:
 126:main.c        ****     
 784              		.loc 1 126 0
 785 0070 7948     		ldr	r0, .L51+40
 786 0072 FFF7FEFF 		bl	LCD_Char_PrintString
 787              	.LVL63:
 129:main.c        ****     
ARM GAS  C:\Users\Admin\AppData\Local\Temp\cclWVjmg.s 			page 23


 788              		.loc 1 129 0
 789 0076 2579     		ldrb	r5, [r4, #4]
 790              	.LVL64:
 791              	.L34:
 142:main.c        ****         {
 792              		.loc 1 142 0
 793 0078 FFF7FEFF 		bl	QuadDec_GetCounter
 794              	.LVL65:
 795 007c 1428     		cmp	r0, #20
 796 007e 02DD     		ble	.L35
 144:main.c        ****         }
 797              		.loc 1 144 0
 798 0080 1420     		movs	r0, #20
 799 0082 FFF7FEFF 		bl	QuadDec_SetCounter
 800              	.LVL66:
 801              	.L35:
 146:main.c        ****         {
 802              		.loc 1 146 0
 803 0086 FFF7FEFF 		bl	QuadDec_GetCounter
 804              	.LVL67:
 805 008a 0028     		cmp	r0, #0
 806 008c 02DC     		bgt	.L36
 148:main.c        ****         }
 807              		.loc 1 148 0
 808 008e 0120     		movs	r0, #1
 809 0090 FFF7FEFF 		bl	QuadDec_SetCounter
 810              	.LVL68:
 811              	.L36:
 151:main.c        ****         {
 812              		.loc 1 151 0
 813 0094 694B     		ldr	r3, .L51+12
 814 0096 DB79     		ldrb	r3, [r3, #7]
 815 0098 002B     		cmp	r3, #0
 816 009a 52D0     		beq	.L37
 153:main.c        ****             if (displayMode == 0)
 817              		.loc 1 153 0
 818 009c 0120     		movs	r0, #1
 819 009e FFF7FEFF 		bl	LCD_Char_WriteControl
 820              	.LVL69:
 154:main.c        ****             {
 821              		.loc 1 154 0
 822 00a2 664B     		ldr	r3, .L51+12
 823 00a4 9B79     		ldrb	r3, [r3, #6]
 824 00a6 002B     		cmp	r3, #0
 825 00a8 07D1     		bne	.L38
 156:main.c        ****                 LCD_Char_PrintString(LIGHTS_BAR);
 826              		.loc 1 156 0
 827 00aa 0021     		movs	r1, #0
 828 00ac 0020     		movs	r0, #0
 829 00ae FFF7FEFF 		bl	LCD_Char_Position
 830              	.LVL70:
 157:main.c        ****             }
 831              		.loc 1 157 0
 832 00b2 6948     		ldr	r0, .L51+40
 833 00b4 FFF7FEFF 		bl	LCD_Char_PrintString
 834              	.LVL71:
 835 00b8 40E0     		b	.L39
ARM GAS  C:\Users\Admin\AppData\Local\Temp\cclWVjmg.s 			page 24


 836              	.L38:
 159:main.c        ****             {
 837              		.loc 1 159 0
 838 00ba 012B     		cmp	r3, #1
 839 00bc 13D1     		bne	.L40
 161:main.c        ****                 LCD_Char_PrintString(SET_RED);
 840              		.loc 1 161 0
 841 00be 0021     		movs	r1, #0
 842 00c0 0020     		movs	r0, #0
 843 00c2 FFF7FEFF 		bl	LCD_Char_Position
 844              	.LVL72:
 162:main.c        ****                 LCD_Char_Position(1, 0);
 845              		.loc 1 162 0
 846 00c6 6548     		ldr	r0, .L51+44
 847 00c8 FFF7FEFF 		bl	LCD_Char_PrintString
 848              	.LVL73:
 163:main.c        ****                 LCD_Char_PrintString(TIME);
 849              		.loc 1 163 0
 850 00cc 0021     		movs	r1, #0
 851 00ce 0120     		movs	r0, #1
 852 00d0 FFF7FEFF 		bl	LCD_Char_Position
 853              	.LVL74:
 164:main.c        ****                 QuadDec_SetCounter(redTime);
 854              		.loc 1 164 0
 855 00d4 6248     		ldr	r0, .L51+48
 856 00d6 FFF7FEFF 		bl	LCD_Char_PrintString
 857              	.LVL75:
 165:main.c        ****             }
 858              		.loc 1 165 0
 859 00da 554B     		ldr	r3, .L51
 860 00dc 0020     		movs	r0, #0
 861 00de 1856     		ldrsb	r0, [r3, r0]
 862 00e0 FFF7FEFF 		bl	QuadDec_SetCounter
 863              	.LVL76:
 864 00e4 2AE0     		b	.L39
 865              	.L40:
 167:main.c        ****             {
 866              		.loc 1 167 0
 867 00e6 022B     		cmp	r3, #2
 868 00e8 13D1     		bne	.L41
 169:main.c        ****                 LCD_Char_PrintString(SET_YELLOW);
 869              		.loc 1 169 0
 870 00ea 0021     		movs	r1, #0
 871 00ec 0020     		movs	r0, #0
 872 00ee FFF7FEFF 		bl	LCD_Char_Position
 873              	.LVL77:
 170:main.c        ****                 LCD_Char_Position(1, 0);
 874              		.loc 1 170 0
 875 00f2 5C48     		ldr	r0, .L51+52
 876 00f4 FFF7FEFF 		bl	LCD_Char_PrintString
 877              	.LVL78:
 171:main.c        ****                 LCD_Char_PrintString(TIME);
 878              		.loc 1 171 0
 879 00f8 0021     		movs	r1, #0
 880 00fa 0120     		movs	r0, #1
 881 00fc FFF7FEFF 		bl	LCD_Char_Position
 882              	.LVL79:
ARM GAS  C:\Users\Admin\AppData\Local\Temp\cclWVjmg.s 			page 25


 172:main.c        ****                 QuadDec_SetCounter(yellowTime);
 883              		.loc 1 172 0
 884 0100 5748     		ldr	r0, .L51+48
 885 0102 FFF7FEFF 		bl	LCD_Char_PrintString
 886              	.LVL80:
 173:main.c        ****             }
 887              		.loc 1 173 0
 888 0106 4B4B     		ldr	r3, .L51+4
 889 0108 0020     		movs	r0, #0
 890 010a 1856     		ldrsb	r0, [r3, r0]
 891 010c FFF7FEFF 		bl	QuadDec_SetCounter
 892              	.LVL81:
 893 0110 14E0     		b	.L39
 894              	.L41:
 175:main.c        ****             {
 895              		.loc 1 175 0
 896 0112 032B     		cmp	r3, #3
 897 0114 12D1     		bne	.L39
 177:main.c        ****                 LCD_Char_PrintString(SET_GREEN);
 898              		.loc 1 177 0
 899 0116 0021     		movs	r1, #0
 900 0118 0020     		movs	r0, #0
 901 011a FFF7FEFF 		bl	LCD_Char_Position
 902              	.LVL82:
 178:main.c        ****                 LCD_Char_Position(1, 0);
 903              		.loc 1 178 0
 904 011e 5248     		ldr	r0, .L51+56
 905 0120 FFF7FEFF 		bl	LCD_Char_PrintString
 906              	.LVL83:
 179:main.c        ****                 LCD_Char_PrintString(TIME);
 907              		.loc 1 179 0
 908 0124 0021     		movs	r1, #0
 909 0126 0120     		movs	r0, #1
 910 0128 FFF7FEFF 		bl	LCD_Char_Position
 911              	.LVL84:
 180:main.c        ****                 QuadDec_SetCounter(greenTime);
 912              		.loc 1 180 0
 913 012c 4C48     		ldr	r0, .L51+48
 914 012e FFF7FEFF 		bl	LCD_Char_PrintString
 915              	.LVL85:
 181:main.c        ****             }
 916              		.loc 1 181 0
 917 0132 414B     		ldr	r3, .L51+8
 918 0134 0020     		movs	r0, #0
 919 0136 1856     		ldrsb	r0, [r3, r0]
 920 0138 FFF7FEFF 		bl	QuadDec_SetCounter
 921              	.LVL86:
 922              	.L39:
 184:main.c        ****         }
 923              		.loc 1 184 0
 924 013c 0022     		movs	r2, #0
 925 013e 3F4B     		ldr	r3, .L51+12
 926 0140 DA71     		strb	r2, [r3, #7]
 927              	.L37:
 187:main.c        ****         {
 928              		.loc 1 187 0
 929 0142 3E4B     		ldr	r3, .L51+12
ARM GAS  C:\Users\Admin\AppData\Local\Temp\cclWVjmg.s 			page 26


 930 0144 9B79     		ldrb	r3, [r3, #6]
 931 0146 002B     		cmp	r3, #0
 932 0148 20D1     		bne	.L42
 189:main.c        ****             {
 933              		.loc 1 189 0
 934 014a 3C4B     		ldr	r3, .L51+12
 935 014c 1B79     		ldrb	r3, [r3, #4]
 936 014e 9D42     		cmp	r5, r3
 937 0150 08D0     		beq	.L43
 191:main.c        ****                 LCD_Char_PrintString(EMPTY_LINE);
 938              		.loc 1 191 0
 939 0152 0021     		movs	r1, #0
 940 0154 0120     		movs	r0, #1
 941 0156 FFF7FEFF 		bl	LCD_Char_Position
 942              	.LVL87:
 192:main.c        ****                 currentCounter = displayCounter.counter;
 943              		.loc 1 192 0
 944 015a 4448     		ldr	r0, .L51+60
 945 015c FFF7FEFF 		bl	LCD_Char_PrintString
 946              	.LVL88:
 194:main.c        ****             }
 947              		.loc 1 194 0
 948 0160 364B     		ldr	r3, .L51+12
 949 0162 1D79     		ldrb	r5, [r3, #4]
 950              	.LVL89:
 951              	.L43:
 196:main.c        ****             
 952              		.loc 1 196 0
 953 0164 354B     		ldr	r3, .L51+12
 954 0166 5C79     		ldrb	r4, [r3, #5]
 955              	.LVL90:
 198:main.c        ****             if (currentCounter < 10)
 956              		.loc 1 198 0
 957 0168 2900     		movs	r1, r5
 958 016a 0120     		movs	r0, #1
 959 016c FFF7FEFF 		bl	LCD_Char_Position
 960              	.LVL91:
 199:main.c        ****             {
 961              		.loc 1 199 0
 962 0170 092C     		cmp	r4, #9
 963 0172 07D8     		bhi	.L44
 201:main.c        ****                 LCD_Char_Position(1, currentPosition + 1);
 964              		.loc 1 201 0
 965 0174 3020     		movs	r0, #48
 966 0176 FFF7FEFF 		bl	LCD_Char_PutChar
 967              	.LVL92:
 202:main.c        ****             }
 968              		.loc 1 202 0
 969 017a 691C     		adds	r1, r5, #1
 970 017c C9B2     		uxtb	r1, r1
 971 017e 0120     		movs	r0, #1
 972 0180 FFF7FEFF 		bl	LCD_Char_Position
 973              	.LVL93:
 974              	.L44:
 204:main.c        ****         }
 975              		.loc 1 204 0
 976 0184 2000     		movs	r0, r4
ARM GAS  C:\Users\Admin\AppData\Local\Temp\cclWVjmg.s 			page 27


 977 0186 FFF7FEFF 		bl	LCD_Char_PrintU32Number
 978              	.LVL94:
 979 018a 75E7     		b	.L34
 980              	.LVL95:
 981              	.L42:
 206:main.c        ****         {
 982              		.loc 1 206 0
 983 018c 012B     		cmp	r3, #1
 984 018e 18D1     		bne	.L46
 208:main.c        ****             if (QuadDec_GetCounter() < 10)
 985              		.loc 1 208 0
 986 0190 0521     		movs	r1, #5
 987 0192 0120     		movs	r0, #1
 988 0194 FFF7FEFF 		bl	LCD_Char_Position
 989              	.LVL96:
 209:main.c        ****             {
 990              		.loc 1 209 0
 991 0198 FFF7FEFF 		bl	QuadDec_GetCounter
 992              	.LVL97:
 993 019c 0928     		cmp	r0, #9
 994 019e 06DC     		bgt	.L47
 211:main.c        ****                 LCD_Char_Position(1, POSITITON_SET_TIME + 1);
 995              		.loc 1 211 0
 996 01a0 3020     		movs	r0, #48
 997 01a2 FFF7FEFF 		bl	LCD_Char_PutChar
 998              	.LVL98:
 212:main.c        ****             }
 999              		.loc 1 212 0
 1000 01a6 0621     		movs	r1, #6
 1001 01a8 0120     		movs	r0, #1
 1002 01aa FFF7FEFF 		bl	LCD_Char_Position
 1003              	.LVL99:
 1004              	.L47:
 214:main.c        ****             
 1005              		.loc 1 214 0
 1006 01ae FFF7FEFF 		bl	QuadDec_GetCounter
 1007              	.LVL100:
 1008 01b2 80B2     		uxth	r0, r0
 1009 01b4 FFF7FEFF 		bl	LCD_Char_PrintU32Number
 1010              	.LVL101:
 216:main.c        ****         }
 1011              		.loc 1 216 0
 1012 01b8 FFF7FEFF 		bl	QuadDec_GetCounter
 1013              	.LVL102:
 1014 01bc 1C4B     		ldr	r3, .L51
 1015 01be 1870     		strb	r0, [r3]
 1016 01c0 5AE7     		b	.L34
 1017              	.L46:
 218:main.c        ****         {
 1018              		.loc 1 218 0
 1019 01c2 022B     		cmp	r3, #2
 1020 01c4 18D1     		bne	.L48
 220:main.c        ****             if (QuadDec_GetCounter() < 10)
 1021              		.loc 1 220 0
 1022 01c6 0521     		movs	r1, #5
 1023 01c8 0120     		movs	r0, #1
 1024 01ca FFF7FEFF 		bl	LCD_Char_Position
ARM GAS  C:\Users\Admin\AppData\Local\Temp\cclWVjmg.s 			page 28


 1025              	.LVL103:
 221:main.c        ****             {
 1026              		.loc 1 221 0
 1027 01ce FFF7FEFF 		bl	QuadDec_GetCounter
 1028              	.LVL104:
 1029 01d2 0928     		cmp	r0, #9
 1030 01d4 06DC     		bgt	.L49
 223:main.c        ****                 LCD_Char_Position(1, POSITITON_SET_TIME + 1);
 1031              		.loc 1 223 0
 1032 01d6 3020     		movs	r0, #48
 1033 01d8 FFF7FEFF 		bl	LCD_Char_PutChar
 1034              	.LVL105:
 224:main.c        ****             }
 1035              		.loc 1 224 0
 1036 01dc 0621     		movs	r1, #6
 1037 01de 0120     		movs	r0, #1
 1038 01e0 FFF7FEFF 		bl	LCD_Char_Position
 1039              	.LVL106:
 1040              	.L49:
 226:main.c        ****             
 1041              		.loc 1 226 0
 1042 01e4 FFF7FEFF 		bl	QuadDec_GetCounter
 1043              	.LVL107:
 1044 01e8 80B2     		uxth	r0, r0
 1045 01ea FFF7FEFF 		bl	LCD_Char_PrintU32Number
 1046              	.LVL108:
 228:main.c        ****         }
 1047              		.loc 1 228 0
 1048 01ee FFF7FEFF 		bl	QuadDec_GetCounter
 1049              	.LVL109:
 1050 01f2 104B     		ldr	r3, .L51+4
 1051 01f4 1870     		strb	r0, [r3]
 1052 01f6 3FE7     		b	.L34
 1053              	.L48:
 230:main.c        ****         {
 1054              		.loc 1 230 0
 1055 01f8 032B     		cmp	r3, #3
 1056 01fa 00D0     		beq	.LCB905
 1057 01fc 3CE7     		b	.L34	@long jump
 1058              	.LCB905:
 232:main.c        ****             if (QuadDec_GetCounter() < 10)
 1059              		.loc 1 232 0
 1060 01fe 0521     		movs	r1, #5
 1061 0200 0120     		movs	r0, #1
 1062 0202 FFF7FEFF 		bl	LCD_Char_Position
 1063              	.LVL110:
 233:main.c        ****             {
 1064              		.loc 1 233 0
 1065 0206 FFF7FEFF 		bl	QuadDec_GetCounter
 1066              	.LVL111:
 1067 020a 0928     		cmp	r0, #9
 1068 020c 06DC     		bgt	.L50
 235:main.c        ****                 LCD_Char_Position(1, POSITITON_SET_TIME + 1);
 1069              		.loc 1 235 0
 1070 020e 3020     		movs	r0, #48
 1071 0210 FFF7FEFF 		bl	LCD_Char_PutChar
 1072              	.LVL112:
ARM GAS  C:\Users\Admin\AppData\Local\Temp\cclWVjmg.s 			page 29


 236:main.c        ****             }
 1073              		.loc 1 236 0
 1074 0214 0621     		movs	r1, #6
 1075 0216 0120     		movs	r0, #1
 1076 0218 FFF7FEFF 		bl	LCD_Char_Position
 1077              	.LVL113:
 1078              	.L50:
 238:main.c        ****             
 1079              		.loc 1 238 0
 1080 021c FFF7FEFF 		bl	QuadDec_GetCounter
 1081              	.LVL114:
 1082 0220 80B2     		uxth	r0, r0
 1083 0222 FFF7FEFF 		bl	LCD_Char_PrintU32Number
 1084              	.LVL115:
 240:main.c        ****         }
 1085              		.loc 1 240 0
 1086 0226 FFF7FEFF 		bl	QuadDec_GetCounter
 1087              	.LVL116:
 1088 022a 034B     		ldr	r3, .L51+8
 1089 022c 1870     		strb	r0, [r3]
 1090 022e 23E7     		b	.L34
 1091              	.L52:
 1092              		.align	2
 1093              	.L51:
 1094 0230 00000000 		.word	redTime
 1095 0234 00000000 		.word	yellowTime
 1096 0238 00000000 		.word	greenTime
 1097 023c 00000000 		.word	.LANCHOR0
 1098 0240 00000000 		.word	timer_isr_interrupt
 1099 0244 00000000 		.word	button_isr_interrupt
 1100 0248 00000000 		.word	button_encoder_isr_interrupt
 1101 024c 00000000 		.word	.LC13
 1102 0250 08000000 		.word	.LC15
 1103 0254 B80B0000 		.word	3000
 1104 0258 18000000 		.word	.LC17
 1105 025c 2C000000 		.word	.LC19
 1106 0260 40000000 		.word	.LC21
 1107 0264 54000000 		.word	.LC23
 1108 0268 68000000 		.word	.LC25
 1109 026c 7C000000 		.word	.LC27
 1110              		.cfi_endproc
 1111              	.LFE37:
 1112              		.size	main, .-main
 1113              		.global	displayCounter
 1114              		.global	modeHasChanged
 1115              		.global	displayMode
 1116              		.comm	greenTime,1,1
 1117              		.comm	yellowTime,1,1
 1118              		.comm	redTime,1,1
 1119              		.global	algorithm
 1120              		.global	counter
 1121              		.section	.rodata.str1.4,"aMS",%progbits,1
 1122              		.align	2
 1123              	.LC13:
 1124 0000 41757468 		.ascii	"Author\000"
 1124      6F7200
 1125 0007 00       		.space	1
ARM GAS  C:\Users\Admin\AppData\Local\Temp\cclWVjmg.s 			page 30


 1126              	.LC15:
 1127 0008 44656E79 		.ascii	"Denys Shutka\000"
 1127      73205368 
 1127      75746B61 
 1127      00
 1128 0015 000000   		.space	3
 1129              	.LC17:
 1130 0018 52454420 		.ascii	"RED YELLOW GREEN\000"
 1130      59454C4C 
 1130      4F572047 
 1130      5245454E 
 1130      00
 1131 0029 000000   		.space	3
 1132              	.LC19:
 1133 002c 53455420 		.ascii	"SET RED TIME:   \000"
 1133      52454420 
 1133      54494D45 
 1133      3A202020 
 1133      00
 1134 003d 000000   		.space	3
 1135              	.LC21:
 1136 0040 54494D45 		.ascii	"TIME=           \000"
 1136      3D202020 
 1136      20202020 
 1136      20202020 
 1136      00
 1137 0051 000000   		.space	3
 1138              	.LC23:
 1139 0054 53455420 		.ascii	"SET YELLOW TIME:\000"
 1139      59454C4C 
 1139      4F572054 
 1139      494D453A 
 1139      00
 1140 0065 000000   		.space	3
 1141              	.LC25:
 1142 0068 53455420 		.ascii	"SET GREEN TIME: \000"
 1142      47524545 
 1142      4E205449 
 1142      4D453A20 
 1142      00
 1143 0079 000000   		.space	3
 1144              	.LC27:
 1145 007c 20202020 		.ascii	"                \000"
 1145      20202020 
 1145      20202020 
 1145      20202020 
 1145      00
 1146              		.bss
 1147              		.align	2
 1148              		.set	.LANCHOR0,. + 0
 1149              		.type	counter, %object
 1150              		.size	counter, 1
 1151              	counter:
 1152 0000 00       		.space	1
 1153              		.type	algorithm, %object
 1154              		.size	algorithm, 1
 1155              	algorithm:
ARM GAS  C:\Users\Admin\AppData\Local\Temp\cclWVjmg.s 			page 31


 1156 0001 00       		.space	1
 1157 0002 0000     		.space	2
 1158              		.type	displayCounter, %object
 1159              		.size	displayCounter, 2
 1160              	displayCounter:
 1161 0004 0000     		.space	2
 1162              		.type	displayMode, %object
 1163              		.size	displayMode, 1
 1164              	displayMode:
 1165 0006 00       		.space	1
 1166              		.type	modeHasChanged, %object
 1167              		.size	modeHasChanged, 1
 1168              	modeHasChanged:
 1169 0007 00       		.space	1
 1170              		.text
 1171              	.Letext0:
 1172              		.file 2 "c:\\program files (x86)\\cypress\\psoc creator\\4.3\\psoc creator\\import\\gnu\\arm\\5.4.
 1173              		.file 3 "c:\\program files (x86)\\cypress\\psoc creator\\4.3\\psoc creator\\import\\gnu\\arm\\5.4.
 1174              		.file 4 "Generated_Source\\PSoC4/cytypes.h"
 1175              		.file 5 "Generated_Source\\PSoC4/Control_Reg.h"
 1176              		.file 6 "Generated_Source\\PSoC4/Timer_Counter.h"
 1177              		.file 7 "Generated_Source\\PSoC4/Button.h"
 1178              		.file 8 "Generated_Source\\PSoC4/Button_Encoder.h"
 1179              		.file 9 "Generated_Source\\PSoC4/timer_isr.h"
 1180              		.file 10 "Generated_Source\\PSoC4/button_isr.h"
 1181              		.file 11 "Generated_Source\\PSoC4/button_encoder_isr.h"
 1182              		.file 12 "Generated_Source\\PSoC4/QuadDec.h"
 1183              		.file 13 "Generated_Source\\PSoC4/LCD_Char.h"
 1184              		.file 14 "Generated_Source\\PSoC4/CyLib.h"